target datalayout = "e-m:e-p270:32:32-p271:32:32-p272:64:64-i64:64-i128:128-f80:128-n8:16:32:64-S128"
target triple = "x86_64-pc-linux-gnu"

; Function Attrs: nounwind uwtable
define internal void @highbd_v_predictor(ptr noundef %0, i64 noundef %1, i32 noundef %2, i32 noundef %3, ptr noundef %4, ptr noundef %5, i32 noundef %6) #0 {
  %8 = alloca ptr, align 8
  %9 = alloca i64, align 8
  %10 = alloca i32, align 4
  %11 = alloca i32, align 4
  %12 = alloca ptr, align 8
  %13 = alloca ptr, align 8
  %14 = alloca i32, align 4
  %15 = alloca i32, align 4
  store ptr %0, ptr %8, align 8
  store i64 %1, ptr %9, align 8
  store i32 %2, ptr %10, align 4
  store i32 %3, ptr %11, align 4
  store ptr %4, ptr %12, align 8
  store ptr %5, ptr %13, align 8
  store i32 %6, ptr %14, align 4
  store i32 0, ptr %15, align 4
  br label %16

16:                                               ; preds = %29, %7
  %17 = load i32, ptr %15, align 4
  %18 = load i32, ptr %11, align 4
  %19 = icmp slt i32 %17, %18
  br i1 %19, label %20, label %32

20:                                               ; preds = %16
  %21 = load ptr, ptr %8, align 8
  %22 = load ptr, ptr %12, align 8
  %23 = load i32, ptr %10, align 4
  %24 = sext i32 %23 to i64
  %25 = mul i64 %24, 2
  call void @llvm.memcpy.p0.p0.i64(ptr align 2 %21, ptr align 2 %22, i64 %25, i1 false)
  %26 = load i64, ptr %9, align 8
  %27 = load ptr, ptr %8, align 8
  %28 = getelementptr inbounds i16, ptr %27, i64 %26
  store ptr %28, ptr %8, align 8
  br label %29

29:                                               ; preds = %20
  %30 = load i32, ptr %15, align 4
  %31 = add nsw i32 %30, 1
  store i32 %31, ptr %15, align 4
  br label %16, !llvm.loop !12

32:                                               ; preds = %16
  ret void
}

; Function Attrs: nounwind uwtable
define hidden void @aom_highbd_v_predictor_16x32_c(ptr noundef %0, i64 noundef %1, ptr noundef %2, ptr noundef %3, i32 noundef %4) #0 {
  %6 = alloca ptr, align 8
  %7 = alloca i64, align 8
  %8 = alloca ptr, align 8
  %9 = alloca ptr, align 8
  %10 = alloca i32, align 4
  store ptr %0, ptr %6, align 8
  store i64 %1, ptr %7, align 8
  store ptr %2, ptr %8, align 8
  store ptr %3, ptr %9, align 8
  store i32 %4, ptr %10, align 4
  %11 = load ptr, ptr %6, align 8
  %12 = load i64, ptr %7, align 8
  %13 = load ptr, ptr %8, align 8
  %14 = load ptr, ptr %9, align 8
  %15 = load i32, ptr %10, align 4
  call void @highbd_v_predictor(ptr noundef %11, i64 noundef %12, i32 noundef 16, i32 noundef 32, ptr noundef %13, ptr noundef %14, i32 noundef %15)
  ret void
}